target datalayout = "e-m:e-p270:32:32-p271:32:32-p272:64:64-i64:64-i128:128-f80:128-n8:16:32:64-S128"
target triple = "x86_64-pc-linux-gnu"

%class.NavMeshPruneTool = type <{ %struct.SampleTool, ptr, ptr, [3 x float], i8, [3 x i8] }>
%struct.SampleTool = type { ptr }
%class.NavmeshFlags = type <{ ptr, ptr, i32, [4 x i8] }>
%"struct.NavmeshFlags::TileFlags" = type { ptr, i32, i32 }

; Function Attrs: mustprogress uwtable
define linkonce_odr dso_local void @_ZN12NavmeshFlags9TileFlags5purgeEv(ptr noundef nonnull align 8 dereferenceable(16) %0) #3 comdat align 2 {
  %2 = alloca ptr, align 8
  store ptr %0, ptr %2, align 8
  %3 = load ptr, ptr %2, align 8
  %4 = getelementptr inbounds %"struct.NavmeshFlags::TileFlags", ptr %3, i32 0, i32 0
  %5 = load ptr, ptr %4, align 8
  call void @_Z6dtFreePv(ptr noundef %5)
  ret void
}

; Function Attrs: mustprogress nounwind uwtable
define linkonce_odr dso_local void @_ZN12NavmeshFlagsD2Ev(ptr noundef nonnull align 8 dereferenceable(20) %0) unnamed_addr #0 comdat align 2 personality ptr @__gxx_personality_v0 {
  %2 = alloca ptr, align 8
  %3 = alloca i32, align 4
  store ptr %0, ptr %2, align 8
  %4 = load ptr, ptr %2, align 8
  store i32 0, ptr %3, align 4
  br label %5

5:                                                ; preds = %17, %1
  %6 = load i32, ptr %3, align 4
  %7 = getelementptr inbounds %class.NavmeshFlags, ptr %4, i32 0, i32 2
  %8 = load i32, ptr %7, align 8
  %9 = icmp slt i32 %6, %8
  br i1 %9, label %10, label %20

10:                                               ; preds = %5
  %11 = getelementptr inbounds %class.NavmeshFlags, ptr %4, i32 0, i32 1
  %12 = load ptr, ptr %11, align 8
  %13 = load i32, ptr %3, align 4
  %14 = sext i32 %13 to i64
  %15 = getelementptr inbounds %"struct.NavmeshFlags::TileFlags", ptr %12, i64 %14
  invoke void @_ZN12NavmeshFlags9TileFlags5purgeEv(ptr noundef nonnull align 8 dereferenceable(16) %15)
          to label %16 unwind label %24

16:                                               ; preds = %10
  br label %17

17:                                               ; preds = %16
  %18 = load i32, ptr %3, align 4
  %19 = add nsw i32 %18, 1
  store i32 %19, ptr %3, align 4
  br label %5, !llvm.loop !5

20:                                               ; preds = %5
  %21 = getelementptr inbounds %class.NavmeshFlags, ptr %4, i32 0, i32 1
  %22 = load ptr, ptr %21, align 8
  invoke void @_Z6dtFreePv(ptr noundef %22)
          to label %23 unwind label %24

23:                                               ; preds = %20
  ret void

24:                                               ; preds = %20, %10
  %25 = landingpad { ptr, i32 }
          catch ptr null
  %26 = extractvalue { ptr, i32 } %25, 0
  call void @__clang_call_terminate(ptr %26) #12
  unreachable
}

; Function Attrs: mustprogress nounwind uwtable
define dso_local void @_ZN16NavMeshPruneTool5resetEv(ptr noundef nonnull align 8 dereferenceable(37) %0) unnamed_addr #0 align 2 {
  %2 = alloca ptr, align 8
  store ptr %0, ptr %2, align 8
  %3 = load ptr, ptr %2, align 8
  %4 = getelementptr inbounds %class.NavMeshPruneTool, ptr %3, i32 0, i32 4
  store i8 0, ptr %4, align 4
  %5 = getelementptr inbounds %class.NavMeshPruneTool, ptr %3, i32 0, i32 2
  %6 = load ptr, ptr %5, align 8
  %7 = icmp eq ptr %6, null
  br i1 %7, label %9, label %8

8:                                                ; preds = %1
  call void @_ZN12NavmeshFlagsD2Ev(ptr noundef nonnull align 8 dereferenceable(20) %6) #10
  call void @_ZdlPv(ptr noundef %6) #11
  br label %9

9:                                                ; preds = %8, %1
  %10 = getelementptr inbounds %class.NavMeshPruneTool, ptr %3, i32 0, i32 2
  store ptr null, ptr %10, align 8
  ret void
}