; Function Attrs: mustprogress nounwind uwtable
define dso_local void @_ZN16NavMeshPruneTool5resetEv(ptr nocapture noundef nonnull align 8 dereferenceable(37) %0) unnamed_addr #1 align 2 personality ptr @__gxx_personality_v0 {
  %2 = getelementptr inbounds i8, ptr %0, i64 36
  store i8 0, ptr %2, align 4
  %3 = getelementptr inbounds i8, ptr %0, i64 16
  %4 = load ptr, ptr %3, align 8
  %5 = icmp eq ptr %4, null
  br i1 %5, label %22, label %6

6:                                                ; preds = %1
  %7 = getelementptr inbounds i8, ptr %4, i64 16
  %8 = load i32, ptr %7, align 8
  %9 = icmp sgt i32 %8, 0
  br i1 %9, label %.lr.ph.i, label %._crit_edge.i

.lr.ph.i:                                         ; preds = %6
  %10 = getelementptr inbounds i8, ptr %4, i64 8
  br label %11

11:                                               ; preds = %_ZN12NavmeshFlags9TileFlags5purgeEv.exit.i, %.lr.ph.i
  %indvars.iv.i = phi i64 [ 0, %.lr.ph.i ], [ %indvars.iv.next.i, %_ZN12NavmeshFlags9TileFlags5purgeEv.exit.i ]
  %12 = load ptr, ptr %10, align 8
  %13 = getelementptr inbounds %"struct.NavmeshFlags::TileFlags", ptr %12, i64 %indvars.iv.i
  %14 = load ptr, ptr %13, align 8
  invoke void @_Z6dtFreePv(ptr noundef %14)
          to label %_ZN12NavmeshFlags9TileFlags5purgeEv.exit.i unwind label %.loopexit.i

_ZN12NavmeshFlags9TileFlags5purgeEv.exit.i:       ; preds = %11
  %indvars.iv.next.i = add nuw nsw i64 %indvars.iv.i, 1
  %15 = load i32, ptr %7, align 8
  %16 = sext i32 %15 to i64
  %17 = icmp slt i64 %indvars.iv.next.i, %16
  br i1 %17, label %11, label %._crit_edge.i, !llvm.loop !5

._crit_edge.i:                                    ; preds = %_ZN12NavmeshFlags9TileFlags5purgeEv.exit.i, %6
  %18 = getelementptr inbounds i8, ptr %4, i64 8
  %19 = load ptr, ptr %18, align 8
  invoke void @_Z6dtFreePv(ptr noundef %19)
          to label %_ZN12NavmeshFlagsD2Ev.exit unwind label %.loopexit.split-lp.i

.loopexit.i:                                      ; preds = %11
  %lpad.loopexit.i = landingpad { ptr, i32 }
          catch ptr null
  br label %20

.loopexit.split-lp.i:                             ; preds = %._crit_edge.i
  %lpad.loopexit.split-lp.i = landingpad { ptr, i32 }
          catch ptr null
  br label %20

20:                                               ; preds = %.loopexit.split-lp.i, %.loopexit.i
  %lpad.phi.i = phi { ptr, i32 } [ %lpad.loopexit.i, %.loopexit.i ], [ %lpad.loopexit.split-lp.i, %.loopexit.split-lp.i ]
  %21 = extractvalue { ptr, i32 } %lpad.phi.i, 0
  tail call void @__clang_call_terminate(ptr %21) #14
  unreachable

_ZN12NavmeshFlagsD2Ev.exit:                       ; preds = %._crit_edge.i
  tail call void @_ZdlPv(ptr noundef nonnull %4) #15
  br label %22

22:                                               ; preds = %_ZN12NavmeshFlagsD2Ev.exit, %1
  store ptr null, ptr %3, align 8
  ret void
}